; Function Attrs: nounwind uwtable
define void @_ZTv0_n24_N5boost7archive17archive_exceptionD0Ev(ptr noundef %0) unnamed_addr #8 align 2 {
  %2 = load ptr, ptr %0, align 8, !tbaa !6
  %3 = getelementptr inbounds i8, ptr %2, i64 -24
  %4 = load i64, ptr %3, align 8
  %5 = getelementptr inbounds i8, ptr %0, i64 %4
  tail call void @_ZNSt9exceptionD2Ev(ptr noundef nonnull align 8 dereferenceable(140) %5) #12
  tail call void @_ZdlPvm(ptr noundef nonnull align 8 dereferenceable(140) %5, i64 noundef 144) #13
  ret void
}